
main.o:     file format elf32-avr


Disassembly of section .text:

00000000 <init>:
   0:	cf 93       	push	r28
   2:	df 93       	push	r29
   4:	cd b7       	in	r28, 0x3d	; 61
   6:	dd 27       	eor	r29, r29
   8:	87 e3       	ldi	r24, 0x37	; 55
   a:	90 e0       	ldi	r25, 0x00	; 0
   c:	2f e0       	ldi	r18, 0x0F	; 15
   e:	fc 01       	movw	r30, r24
  10:	20 83       	st	Z, r18
  12:	88 e3       	ldi	r24, 0x38	; 56
  14:	90 e0       	ldi	r25, 0x00	; 0
  16:	24 e0       	ldi	r18, 0x04	; 4
  18:	fc 01       	movw	r30, r24
  1a:	20 83       	st	Z, r18
  1c:	81 e3       	ldi	r24, 0x31	; 49
  1e:	90 e0       	ldi	r25, 0x00	; 0
  20:	2f ef       	ldi	r18, 0xFF	; 255
  22:	fc 01       	movw	r30, r24
  24:	20 83       	st	Z, r18
  26:	82 e3       	ldi	r24, 0x32	; 50
  28:	90 e0       	ldi	r25, 0x00	; 0
  2a:	20 e4       	ldi	r18, 0x40	; 64
  2c:	fc 01       	movw	r30, r24
  2e:	20 83       	st	Z, r18
  30:	00 00       	nop
  32:	df 91       	pop	r29
  34:	cf 91       	pop	r28
  36:	08 95       	ret

00000038 <set_led>:
  38:	cf 93       	push	r28
  3a:	df 93       	push	r29
  3c:	1f 92       	push	r1
  3e:	cd b7       	in	r28, 0x3d	; 61
  40:	dd 27       	eor	r29, r29
  42:	89 83       	std	Y+1, r24	; 0x01
  44:	89 81       	ldd	r24, Y+1	; 0x01
  46:	88 23       	and	r24, r24
  48:	01 f4       	brne	.+0      	; 0x4a <set_led+0x12>
  4a:	82 e3       	ldi	r24, 0x32	; 50
  4c:	90 e0       	ldi	r25, 0x00	; 0
  4e:	20 e3       	ldi	r18, 0x30	; 48
  50:	fc 01       	movw	r30, r24
  52:	20 83       	st	Z, r18
  54:	00 c0       	rjmp	.+0      	; 0x56 <set_led+0x1e>
  56:	82 e3       	ldi	r24, 0x32	; 50
  58:	90 e0       	ldi	r25, 0x00	; 0
  5a:	26 e0       	ldi	r18, 0x06	; 6
  5c:	fc 01       	movw	r30, r24
  5e:	20 83       	st	Z, r18
  60:	00 00       	nop
  62:	0f 90       	pop	r0
  64:	df 91       	pop	r29
  66:	cf 91       	pop	r28
  68:	08 95       	ret

0000006a <Delay>:
  6a:	ef 92       	push	r14
  6c:	ff 92       	push	r15
  6e:	0f 93       	push	r16
  70:	1f 93       	push	r17
  72:	cf 93       	push	r28
  74:	df 93       	push	r29
  76:	cd b7       	in	r28, 0x3d	; 61
  78:	dd 27       	eor	r29, r29
  7a:	c6 50       	subi	r28, 0x06	; 6
  7c:	cd bf       	out	0x3d, r28	; 61
  7e:	9e 83       	std	Y+6, r25	; 0x06
  80:	8d 83       	std	Y+5, r24	; 0x05
  82:	19 82       	std	Y+1, r1	; 0x01
  84:	1a 82       	std	Y+2, r1	; 0x02
  86:	1b 82       	std	Y+3, r1	; 0x03
  88:	1c 82       	std	Y+4, r1	; 0x04
  8a:	8d 81       	ldd	r24, Y+5	; 0x05
  8c:	9e 81       	ldd	r25, Y+6	; 0x06
  8e:	9c 01       	movw	r18, r24
  90:	40 e0       	ldi	r20, 0x00	; 0
  92:	50 e0       	ldi	r21, 0x00	; 0
  94:	da 01       	movw	r26, r20
  96:	c9 01       	movw	r24, r18
  98:	88 0f       	add	r24, r24
  9a:	99 1f       	adc	r25, r25
  9c:	aa 1f       	adc	r26, r26
  9e:	bb 1f       	adc	r27, r27
  a0:	88 0f       	add	r24, r24
  a2:	99 1f       	adc	r25, r25
  a4:	aa 1f       	adc	r26, r26
  a6:	bb 1f       	adc	r27, r27
  a8:	7c 01       	movw	r14, r24
  aa:	8d 01       	movw	r16, r26
  ac:	ee 0c       	add	r14, r14
  ae:	ff 1c       	adc	r15, r15
  b0:	00 1f       	adc	r16, r16
  b2:	11 1f       	adc	r17, r17
  b4:	ee 0c       	add	r14, r14
  b6:	ff 1c       	adc	r15, r15
  b8:	00 1f       	adc	r16, r16
  ba:	11 1f       	adc	r17, r17
  bc:	8e 0d       	add	r24, r14
  be:	9f 1d       	adc	r25, r15
  c0:	a0 1f       	adc	r26, r16
  c2:	b1 1f       	adc	r27, r17
  c4:	82 1b       	sub	r24, r18
  c6:	93 0b       	sbc	r25, r19
  c8:	a4 0b       	sbc	r26, r20
  ca:	b5 0b       	sbc	r27, r21
  cc:	88 0f       	add	r24, r24
  ce:	99 1f       	adc	r25, r25
  d0:	aa 1f       	adc	r26, r26
  d2:	bb 1f       	adc	r27, r27
  d4:	88 0f       	add	r24, r24
  d6:	99 1f       	adc	r25, r25
  d8:	aa 1f       	adc	r26, r26
  da:	bb 1f       	adc	r27, r27
  dc:	82 1b       	sub	r24, r18
  de:	93 0b       	sbc	r25, r19
  e0:	a4 0b       	sbc	r26, r20
  e2:	b5 0b       	sbc	r27, r21
  e4:	88 0f       	add	r24, r24
  e6:	99 1f       	adc	r25, r25
  e8:	aa 1f       	adc	r26, r26
  ea:	bb 1f       	adc	r27, r27
  ec:	88 0f       	add	r24, r24
  ee:	99 1f       	adc	r25, r25
  f0:	aa 1f       	adc	r26, r26
  f2:	bb 1f       	adc	r27, r27
  f4:	89 83       	std	Y+1, r24	; 0x01
  f6:	9a 83       	std	Y+2, r25	; 0x02
  f8:	ab 83       	std	Y+3, r26	; 0x03
  fa:	bc 83       	std	Y+4, r27	; 0x04
  fc:	00 c0       	rjmp	.+0      	; 0xfe <Delay+0x94>
  fe:	89 81       	ldd	r24, Y+1	; 0x01
 100:	9a 81       	ldd	r25, Y+2	; 0x02
 102:	ab 81       	ldd	r26, Y+3	; 0x03
 104:	bc 81       	ldd	r27, Y+4	; 0x04
 106:	01 97       	sbiw	r24, 0x01	; 1
 108:	a1 09       	sbc	r26, r1
 10a:	b1 09       	sbc	r27, r1
 10c:	89 83       	std	Y+1, r24	; 0x01
 10e:	9a 83       	std	Y+2, r25	; 0x02
 110:	ab 83       	std	Y+3, r26	; 0x03
 112:	bc 83       	std	Y+4, r27	; 0x04
 114:	89 81       	ldd	r24, Y+1	; 0x01
 116:	9a 81       	ldd	r25, Y+2	; 0x02
 118:	ab 81       	ldd	r26, Y+3	; 0x03
 11a:	bc 81       	ldd	r27, Y+4	; 0x04
 11c:	89 2b       	or	r24, r25
 11e:	8a 2b       	or	r24, r26
 120:	8b 2b       	or	r24, r27
 122:	01 f4       	brne	.+0      	; 0x124 <Delay+0xba>
 124:	00 00       	nop
 126:	ca 5f       	subi	r28, 0xFA	; 250
 128:	cd bf       	out	0x3d, r28	; 61
 12a:	df 91       	pop	r29
 12c:	cf 91       	pop	r28
 12e:	1f 91       	pop	r17
 130:	0f 91       	pop	r16
 132:	ff 90       	pop	r15
 134:	ef 90       	pop	r14
 136:	08 95       	ret

00000138 <main>:
 138:	cf 93       	push	r28
 13a:	df 93       	push	r29
 13c:	cd b7       	in	r28, 0x3d	; 61
 13e:	dd 27       	eor	r29, r29
 140:	00 d0       	rcall	.+0      	; 0x142 <main+0xa>
 142:	88 ee       	ldi	r24, 0xE8	; 232
 144:	93 e0       	ldi	r25, 0x03	; 3
 146:	00 d0       	rcall	.+0      	; 0x148 <main+0x10>
 148:	80 e0       	ldi	r24, 0x00	; 0
 14a:	00 d0       	rcall	.+0      	; 0x14c <main+0x14>
 14c:	88 ee       	ldi	r24, 0xE8	; 232
 14e:	93 e0       	ldi	r25, 0x03	; 3
 150:	00 d0       	rcall	.+0      	; 0x152 <main+0x1a>
 152:	81 e0       	ldi	r24, 0x01	; 1
 154:	00 d0       	rcall	.+0      	; 0x156 <main+0x1e>
 156:	00 c0       	rjmp	.+0      	; 0x158 <main+0x20>

Disassembly of section .data:

00000000 <char_init>:
   0:	05 02       	muls	r16, r21

00000001 <int_init>:
   1:	02 00       	.word	0x0002	; ????

Disassembly of section .comment:

00000000 <.comment>:
   0:	00 47       	sbci	r16, 0x70	; 112
   2:	43 43       	sbci	r20, 0x33	; 51
   4:	3a 20       	and	r3, r10
   6:	28 47       	sbci	r18, 0x78	; 120
   8:	4e 55       	subi	r20, 0x5E	; 94
   a:	29 20       	and	r2, r9
   c:	35 2e       	mov	r3, r21
   e:	34 2e       	mov	r3, r20
  10:	30 00       	.word	0x0030	; ????
