
debugging.elf:     file format elf32-avr


Disassembly of section .text:

00000000 <__vectors>:
   0:	14 c0       	rjmp	.+40     	; 0x2a <my_init>
   2:	3c c0       	rjmp	.+120    	; 0x7c <__bad_interrupt>
   4:	3b c0       	rjmp	.+118    	; 0x7c <__bad_interrupt>
   6:	3a c0       	rjmp	.+116    	; 0x7c <__bad_interrupt>
   8:	39 c0       	rjmp	.+114    	; 0x7c <__bad_interrupt>
   a:	38 c0       	rjmp	.+112    	; 0x7c <__bad_interrupt>
   c:	37 c0       	rjmp	.+110    	; 0x7c <__bad_interrupt>
   e:	36 c0       	rjmp	.+108    	; 0x7c <__bad_interrupt>
  10:	35 c0       	rjmp	.+106    	; 0x7c <__bad_interrupt>
  12:	34 c0       	rjmp	.+104    	; 0x7c <__bad_interrupt>
  14:	33 c0       	rjmp	.+102    	; 0x7c <__bad_interrupt>
  16:	32 c0       	rjmp	.+100    	; 0x7c <__bad_interrupt>
  18:	31 c0       	rjmp	.+98     	; 0x7c <__bad_interrupt>
  1a:	30 c0       	rjmp	.+96     	; 0x7c <__bad_interrupt>
  1c:	2f c0       	rjmp	.+94     	; 0x7c <__bad_interrupt>
  1e:	2e c0       	rjmp	.+92     	; 0x7c <__bad_interrupt>
  20:	2d c0       	rjmp	.+90     	; 0x7c <__bad_interrupt>
  22:	2c c0       	rjmp	.+88     	; 0x7c <__bad_interrupt>
  24:	2b c0       	rjmp	.+86     	; 0x7c <__bad_interrupt>
  26:	2a c0       	rjmp	.+84     	; 0x7c <__bad_interrupt>
  28:	29 c0       	rjmp	.+82     	; 0x7c <__bad_interrupt>

0000002a <my_init>:
  2a:	11 24       	eor	r1, r1
  2c:	1f be       	out	0x3f, r1	; 63
  2e:	cf ed       	ldi	r28, 0xDF	; 223
  30:	cd bf       	out	0x3d, r28	; 61
  32:	42 e6       	ldi	r20, 0x62	; 98
  34:	50 e0       	ldi	r21, 0x00	; 0
  36:	20 e6       	ldi	r18, 0x60	; 96
  38:	30 e0       	ldi	r19, 0x00	; 0
  3a:	8a e0       	ldi	r24, 0x0A	; 10
  3c:	92 e0       	ldi	r25, 0x02	; 2
  3e:	e8 2f       	mov	r30, r24
  40:	f9 2f       	mov	r31, r25
  42:	a2 2f       	mov	r26, r18
  44:	b3 2f       	mov	r27, r19
  46:	84 2f       	mov	r24, r20
  48:	95 2f       	mov	r25, r21
  4a:	ea 17       	cp	r30, r26
  4c:	fb 07       	cpc	r31, r27
  4e:	29 f0       	breq	.+10     	; 0x5a <load_end>

00000050 <load_loop>:
  50:	05 90       	lpm	r0, Z+
  52:	0d 92       	st	X+, r0
  54:	8a 17       	cp	r24, r26
  56:	9b 07       	cpc	r25, r27
  58:	d9 f7       	brne	.-10     	; 0x50 <load_loop>

0000005a <load_end>:
  5a:	23 e6       	ldi	r18, 0x63	; 99
  5c:	30 e0       	ldi	r19, 0x00	; 0
  5e:	82 e6       	ldi	r24, 0x62	; 98
  60:	90 e0       	ldi	r25, 0x00	; 0
  62:	a8 2f       	mov	r26, r24
  64:	b9 2f       	mov	r27, r25
  66:	82 2f       	mov	r24, r18
  68:	93 2f       	mov	r25, r19
  6a:	8a 17       	cp	r24, r26
  6c:	9b 07       	cpc	r25, r27
  6e:	21 f0       	breq	.+8      	; 0x78 <bss_end>

00000070 <bss_loop>:
  70:	1d 92       	st	X+, r1
  72:	8a 17       	cp	r24, r26
  74:	9b 07       	cpc	r25, r27
  76:	e1 f7       	brne	.-8      	; 0x70 <bss_loop>

00000078 <bss_end>:
  78:	41 d0       	rcall	.+130    	; 0xfc <main>
  7a:	c5 c0       	rjmp	.+394    	; 0x206 <_exit>

0000007c <__bad_interrupt>:
  7c:	c1 cf       	rjmp	.-126    	; 0x0 <__vectors>

0000007e <init>:
  7e:	8f e0       	ldi	r24, 0x0F	; 15
  80:	87 bb       	out	0x17, r24	; 23
  82:	84 e0       	ldi	r24, 0x04	; 4
  84:	88 bb       	out	0x18, r24	; 24
  86:	8f ef       	ldi	r24, 0xFF	; 255
  88:	81 bb       	out	0x11, r24	; 17
  8a:	80 e4       	ldi	r24, 0x40	; 64
  8c:	82 bb       	out	0x12, r24	; 18
  8e:	08 95       	ret

00000090 <Delay>:
  90:	cf 93       	push	r28
  92:	df 93       	push	r29
  94:	cd b7       	in	r28, 0x3d	; 61
  96:	dd 27       	eor	r29, r29
  98:	c4 50       	subi	r28, 0x04	; 4
  9a:	cd bf       	out	0x3d, r28	; 61
  9c:	4c e2       	ldi	r20, 0x2C	; 44
  9e:	51 e0       	ldi	r21, 0x01	; 1
  a0:	60 e0       	ldi	r22, 0x00	; 0
  a2:	70 e0       	ldi	r23, 0x00	; 0
  a4:	49 83       	std	Y+1, r20	; 0x01
  a6:	5a 83       	std	Y+2, r21	; 0x02
  a8:	6b 83       	std	Y+3, r22	; 0x03
  aa:	7c 83       	std	Y+4, r23	; 0x04
  ac:	20 91 62 00 	lds	r18, 0x0062	; 0x800062 <__data_end>
  b0:	2f 5f       	subi	r18, 0xFF	; 255
  b2:	20 93 62 00 	sts	0x0062, r18	; 0x800062 <__data_end>
  b6:	bc 01       	movw	r22, r24
  b8:	80 e0       	ldi	r24, 0x00	; 0
  ba:	90 e0       	ldi	r25, 0x00	; 0
  bc:	2c e2       	ldi	r18, 0x2C	; 44
  be:	31 e0       	ldi	r19, 0x01	; 1
  c0:	40 e0       	ldi	r20, 0x00	; 0
  c2:	50 e0       	ldi	r21, 0x00	; 0
  c4:	2a d0       	rcall	.+84     	; 0x11a <__umulsidi3>
  c6:	c9 01       	movw	r24, r18
  c8:	da 01       	movw	r26, r20
  ca:	89 83       	std	Y+1, r24	; 0x01
  cc:	9a 83       	std	Y+2, r25	; 0x02
  ce:	ab 83       	std	Y+3, r26	; 0x03
  d0:	bc 83       	std	Y+4, r27	; 0x04
  d2:	89 81       	ldd	r24, Y+1	; 0x01
  d4:	9a 81       	ldd	r25, Y+2	; 0x02
  d6:	ab 81       	ldd	r26, Y+3	; 0x03
  d8:	bc 81       	ldd	r27, Y+4	; 0x04
  da:	89 2b       	or	r24, r25
  dc:	8a 2b       	or	r24, r26
  de:	8b 2b       	or	r24, r27
  e0:	41 f0       	breq	.+16     	; 0xf2 <__stack+0x13>
  e2:	89 81       	ldd	r24, Y+1	; 0x01
  e4:	9a 81       	ldd	r25, Y+2	; 0x02
  e6:	ab 81       	ldd	r26, Y+3	; 0x03
  e8:	bc 81       	ldd	r27, Y+4	; 0x04
  ea:	01 97       	sbiw	r24, 0x01	; 1
  ec:	a1 09       	sbc	r26, r1
  ee:	b1 09       	sbc	r27, r1
  f0:	ec cf       	rjmp	.-40     	; 0xca <Delay+0x3a>
  f2:	cc 5f       	subi	r28, 0xFC	; 252
  f4:	cd bf       	out	0x3d, r28	; 61
  f6:	df 91       	pop	r29
  f8:	cf 91       	pop	r28
  fa:	08 95       	ret

000000fc <main>:
  fc:	c0 df       	rcall	.-128    	; 0x7e <init>
  fe:	c6 e0       	ldi	r28, 0x06	; 6
 100:	88 ee       	ldi	r24, 0xE8	; 232
 102:	93 e0       	ldi	r25, 0x03	; 3
 104:	c5 df       	rcall	.-118    	; 0x90 <Delay>
 106:	80 91 60 00 	lds	r24, 0x0060	; 0x800060 <__data_start>
 10a:	82 bb       	out	0x12, r24	; 18
 10c:	88 ee       	ldi	r24, 0xE8	; 232
 10e:	93 e0       	ldi	r25, 0x03	; 3
 110:	bf df       	rcall	.-130    	; 0x90 <Delay>
 112:	c2 bb       	out	0x12, r28	; 18
 114:	f5 cf       	rjmp	.-22     	; 0x100 <main+0x4>

00000116 <__mulsidi3>:
 116:	68 94       	set
 118:	00 13       	cpse	r16, r16

0000011a <__umulsidi3>:
 11a:	e8 94       	clt
 11c:	a0 e0       	ldi	r26, 0x00	; 0
 11e:	b0 e0       	ldi	r27, 0x00	; 0
 120:	e3 e9       	ldi	r30, 0x93	; 147
 122:	f0 e0       	ldi	r31, 0x00	; 0
 124:	1d c0       	rjmp	.+58     	; 0x160 <__prologue_saves__+0x10>
 126:	ef ef       	ldi	r30, 0xFF	; 255
 128:	e7 f9       	bld	r30, 7
 12a:	59 01       	movw	r10, r18
 12c:	6a 01       	movw	r12, r20
 12e:	5e 23       	and	r21, r30
 130:	55 0f       	add	r21, r21
 132:	ee 08       	sbc	r14, r14
 134:	fe 2c       	mov	r15, r14
 136:	87 01       	movw	r16, r14
 138:	9b 01       	movw	r18, r22
 13a:	ac 01       	movw	r20, r24
 13c:	9e 23       	and	r25, r30
 13e:	99 0f       	add	r25, r25
 140:	66 0b       	sbc	r22, r22
 142:	76 2f       	mov	r23, r22
 144:	cb 01       	movw	r24, r22
 146:	31 d0       	rcall	.+98     	; 0x1aa <__muldi3>
 148:	cd b7       	in	r28, 0x3d	; 61
 14a:	dd 27       	eor	r29, r29
 14c:	ea e0       	ldi	r30, 0x0A	; 10
 14e:	1f c0       	rjmp	.+62     	; 0x18e <__epilogue_restores__+0x10>

00000150 <__prologue_saves__>:
 150:	2f 92       	push	r2
 152:	3f 92       	push	r3
 154:	4f 92       	push	r4
 156:	5f 92       	push	r5
 158:	6f 92       	push	r6
 15a:	7f 92       	push	r7
 15c:	8f 92       	push	r8
 15e:	9f 92       	push	r9
 160:	af 92       	push	r10
 162:	bf 92       	push	r11
 164:	cf 92       	push	r12
 166:	df 92       	push	r13
 168:	ef 92       	push	r14
 16a:	ff 92       	push	r15
 16c:	0f 93       	push	r16
 16e:	1f 93       	push	r17
 170:	cf 93       	push	r28
 172:	df 93       	push	r29
 174:	cd b7       	in	r28, 0x3d	; 61
 176:	ca 1b       	sub	r28, r26
 178:	cd bf       	out	0x3d, r28	; 61
 17a:	dd 27       	eor	r29, r29
 17c:	09 94       	ijmp

0000017e <__epilogue_restores__>:
 17e:	2a 88       	ldd	r2, Y+18	; 0x12
 180:	39 88       	ldd	r3, Y+17	; 0x11
 182:	48 88       	ldd	r4, Y+16	; 0x10
 184:	5f 84       	ldd	r5, Y+15	; 0x0f
 186:	6e 84       	ldd	r6, Y+14	; 0x0e
 188:	7d 84       	ldd	r7, Y+13	; 0x0d
 18a:	8c 84       	ldd	r8, Y+12	; 0x0c
 18c:	9b 84       	ldd	r9, Y+11	; 0x0b
 18e:	aa 84       	ldd	r10, Y+10	; 0x0a
 190:	b9 84       	ldd	r11, Y+9	; 0x09
 192:	c8 84       	ldd	r12, Y+8	; 0x08
 194:	df 80       	ldd	r13, Y+7	; 0x07
 196:	ee 80       	ldd	r14, Y+6	; 0x06
 198:	fd 80       	ldd	r15, Y+5	; 0x05
 19a:	0c 81       	ldd	r16, Y+4	; 0x04
 19c:	1b 81       	ldd	r17, Y+3	; 0x03
 19e:	aa 81       	ldd	r26, Y+2	; 0x02
 1a0:	d9 81       	ldd	r29, Y+1	; 0x01
 1a2:	ce 0f       	add	r28, r30
 1a4:	cd bf       	out	0x3d, r28	; 61
 1a6:	ca 2f       	mov	r28, r26
 1a8:	08 95       	ret

000001aa <__muldi3>:
 1aa:	df 93       	push	r29
 1ac:	cf 93       	push	r28
 1ae:	9f 92       	push	r9
 1b0:	a0 e4       	ldi	r26, 0x40	; 64
 1b2:	9a 2e       	mov	r9, r26
 1b4:	00 24       	eor	r0, r0
 1b6:	d0 01       	movw	r26, r0
 1b8:	e0 01       	movw	r28, r0
 1ba:	f0 01       	movw	r30, r0
 1bc:	16 95       	lsr	r17
 1be:	07 95       	ror	r16
 1c0:	f7 94       	ror	r15
 1c2:	e7 94       	ror	r14
 1c4:	d7 94       	ror	r13
 1c6:	c7 94       	ror	r12
 1c8:	b7 94       	ror	r11
 1ca:	a7 94       	ror	r10
 1cc:	48 f4       	brcc	.+18     	; 0x1e0 <__muldi3+0x36>
 1ce:	10 68       	ori	r17, 0x80	; 128
 1d0:	a2 0f       	add	r26, r18
 1d2:	b3 1f       	adc	r27, r19
 1d4:	c4 1f       	adc	r28, r20
 1d6:	d5 1f       	adc	r29, r21
 1d8:	e6 1f       	adc	r30, r22
 1da:	f7 1f       	adc	r31, r23
 1dc:	08 1e       	adc	r0, r24
 1de:	19 1e       	adc	r1, r25
 1e0:	22 0f       	add	r18, r18
 1e2:	33 1f       	adc	r19, r19
 1e4:	44 1f       	adc	r20, r20
 1e6:	55 1f       	adc	r21, r21
 1e8:	66 1f       	adc	r22, r22
 1ea:	77 1f       	adc	r23, r23
 1ec:	88 1f       	adc	r24, r24
 1ee:	99 1f       	adc	r25, r25
 1f0:	9a 94       	dec	r9
 1f2:	21 f7       	brne	.-56     	; 0x1bc <__muldi3+0x12>
 1f4:	9d 01       	movw	r18, r26
 1f6:	ae 01       	movw	r20, r28
 1f8:	bf 01       	movw	r22, r30
 1fa:	c0 01       	movw	r24, r0
 1fc:	11 24       	eor	r1, r1
 1fe:	9f 90       	pop	r9
 200:	cf 91       	pop	r28
 202:	df 91       	pop	r29
 204:	08 95       	ret

00000206 <_exit>:
 206:	f8 94       	cli

00000208 <__stop_program>:
 208:	ff cf       	rjmp	.-2      	; 0x208 <__stop_program>

Disassembly of section .data:

00800060 <__data_start>:
  800060:	20 00       	.word	0x0020	; ????
